target datalayout = "e-m:e-p270:32:32-p271:32:32-p272:64:64-i64:64-i128:128-f80:128-n8:16:32:64-S128"
target triple = "x86_64-unknown-linux-gnu"

%class.btCompoundCompoundCollisionAlgorithm = type { %class.btCompoundCollisionAlgorithm, ptr, %class.btAlignedObjectArray.8, i32, i32 }
%class.btCompoundCollisionAlgorithm = type { %class.btActivatingCollisionAlgorithm, %class.btAlignedObjectArray, %class.btAlignedObjectArray.0, %class.btAlignedObjectArray.4, i8, ptr, i8, i32 }
%class.btActivatingCollisionAlgorithm = type { %class.btCollisionAlgorithm }
%class.btCollisionAlgorithm = type { ptr, ptr }
%class.btAlignedObjectArray = type <{ %class.btAlignedAllocator, [3 x i8], i32, i32, [4 x i8], ptr, i8, [7 x i8] }>
%class.btAlignedAllocator = type { i8 }
%class.btAlignedObjectArray.0 = type <{ %class.btAlignedAllocator.1, [3 x i8], i32, i32, [4 x i8], ptr, i8, [7 x i8] }>
%class.btAlignedAllocator.1 = type { i8 }
%class.btAlignedObjectArray.4 = type <{ %class.btAlignedAllocator.5, [3 x i8], i32, i32, [4 x i8], ptr, i8, [7 x i8] }>
%class.btAlignedAllocator.5 = type { i8 }
%class.btAlignedObjectArray.8 = type <{ %class.btAlignedAllocator.9, [3 x i8], i32, i32, [4 x i8], ptr, i8, [7 x i8] }>
%class.btAlignedAllocator.9 = type { i8 }
%struct.btSimplePair = type { i32, i32, %union.anon.20 }
%union.anon.20 = type { ptr }
%class.btHashedSimplePairCache = type { ptr, %class.btAlignedObjectArray.8, %class.btAlignedObjectArray.12, %class.btAlignedObjectArray.12 }
%class.btAlignedObjectArray.12 = type <{ %class.btAlignedAllocator.13, [3 x i8], i32, i32, [4 x i8], ptr, i8, [7 x i8] }>
%class.btAlignedAllocator.13 = type { i8 }

; Function Attrs: mustprogress nounwind uwtable
define linkonce_odr dso_local noundef nonnull align 8 dereferenceable(16) ptr @_ZN20btAlignedObjectArrayI12btSimplePairEixEi(ptr noundef nonnull align 8 dereferenceable(25) %this, i32 noundef %n) #1 comdat align 2 {
entry:
  %this.addr = alloca ptr, align 8
  %n.addr = alloca i32, align 4
  store ptr %this, ptr %this.addr, align 8
  store i32 %n, ptr %n.addr, align 4
  %this1 = load ptr, ptr %this.addr, align 8
  %m_data = getelementptr inbounds %class.btAlignedObjectArray.8, ptr %this1, i32 0, i32 5
  %0 = load ptr, ptr %m_data, align 8
  %1 = load i32, ptr %n.addr, align 4
  %idxprom = sext i32 %1 to i64
  %arrayidx = getelementptr inbounds %struct.btSimplePair, ptr %0, i64 %idxprom
  ret ptr %arrayidx
}

; Function Attrs: mustprogress nounwind uwtable
define linkonce_odr dso_local noundef i32 @_ZNK20btAlignedObjectArrayI12btSimplePairE4sizeEv(ptr noundef nonnull align 8 dereferenceable(25) %this) #1 comdat align 2 {
entry:
  %this.addr = alloca ptr, align 8
  store ptr %this, ptr %this.addr, align 8
  %this1 = load ptr, ptr %this.addr, align 8
  %m_size = getelementptr inbounds %class.btAlignedObjectArray.8, ptr %this1, i32 0, i32 2
  %0 = load i32, ptr %m_size, align 4
  ret i32 %0
}

; Function Attrs: mustprogress nounwind uwtable
define linkonce_odr dso_local noundef nonnull align 8 dereferenceable(25) ptr @_ZN23btHashedSimplePairCache23getOverlappingPairArrayEv(ptr noundef nonnull align 8 dereferenceable(104) %this) #1 comdat align 2 {
entry:
  %this.addr = alloca ptr, align 8
  store ptr %this, ptr %this.addr, align 8
  %this1 = load ptr, ptr %this.addr, align 8
  %m_overlappingPairArray = getelementptr inbounds %class.btHashedSimplePairCache, ptr %this1, i32 0, i32 1
  ret ptr %m_overlappingPairArray
}

; Function Attrs: mustprogress uwtable
define dso_local void @_ZN36btCompoundCompoundCollisionAlgorithm22getAllContactManifoldsER20btAlignedObjectArrayIP20btPersistentManifoldE(ptr noundef nonnull align 8 dereferenceable(184) %this, ptr noundef nonnull align 8 dereferenceable(25) %manifoldArray) unnamed_addr #2 align 2 {
entry:
  %this.addr = alloca ptr, align 8
  %manifoldArray.addr = alloca ptr, align 8
  %i = alloca i32, align 4
  %pairs = alloca ptr, align 8
  store ptr %this, ptr %this.addr, align 8
  store ptr %manifoldArray, ptr %manifoldArray.addr, align 8
  %this1 = load ptr, ptr %this.addr, align 8
  %m_childCollisionAlgorithmCache = getelementptr inbounds %class.btCompoundCompoundCollisionAlgorithm, ptr %this1, i32 0, i32 1
  %0 = load ptr, ptr %m_childCollisionAlgorithmCache, align 8
  %call = call noundef nonnull align 8 dereferenceable(25) ptr @_ZN23btHashedSimplePairCache23getOverlappingPairArrayEv(ptr noundef nonnull align 8 dereferenceable(104) %0)
  store ptr %call, ptr %pairs, align 8
  store i32 0, ptr %i, align 4
  br label %for.cond

for.cond:                                         ; preds = %for.inc, %entry
  %1 = load i32, ptr %i, align 4
  %2 = load ptr, ptr %pairs, align 8
  %call2 = call noundef i32 @_ZNK20btAlignedObjectArrayI12btSimplePairE4sizeEv(ptr noundef nonnull align 8 dereferenceable(25) %2)
  %cmp = icmp slt i32 %1, %call2
  br i1 %cmp, label %for.body, label %for.end

for.body:                                         ; preds = %for.cond
  %3 = load ptr, ptr %pairs, align 8
  %4 = load i32, ptr %i, align 4
  %call3 = call noundef nonnull align 8 dereferenceable(16) ptr @_ZN20btAlignedObjectArrayI12btSimplePairEixEi(ptr noundef nonnull align 8 dereferenceable(25) %3, i32 noundef %4)
  %5 = getelementptr inbounds %struct.btSimplePair, ptr %call3, i32 0, i32 2
  %6 = load ptr, ptr %5, align 8
  %tobool = icmp ne ptr %6, null
  br i1 %tobool, label %if.then, label %if.end

if.then:                                          ; preds = %for.body
  %7 = load ptr, ptr %pairs, align 8
  %8 = load i32, ptr %i, align 4
  %call4 = call noundef nonnull align 8 dereferenceable(16) ptr @_ZN20btAlignedObjectArrayI12btSimplePairEixEi(ptr noundef nonnull align 8 dereferenceable(25) %7, i32 noundef %8)
  %9 = getelementptr inbounds %struct.btSimplePair, ptr %call4, i32 0, i32 2
  %10 = load ptr, ptr %9, align 8
  %11 = load ptr, ptr %manifoldArray.addr, align 8
  %vtable = load ptr, ptr %10, align 8
  %vfn = getelementptr inbounds ptr, ptr %vtable, i64 4
  %12 = load ptr, ptr %vfn, align 8
  call void %12(ptr noundef nonnull align 8 dereferenceable(16) %10, ptr noundef nonnull align 8 dereferenceable(25) %11)
  br label %if.end

if.end:                                           ; preds = %if.then, %for.body
  br label %for.inc

for.inc:                                          ; preds = %if.end
  %13 = load i32, ptr %i, align 4
  %inc = add nsw i32 %13, 1
  store i32 %inc, ptr %i, align 4
  br label %for.cond, !llvm.loop !7

for.end:                                          ; preds = %for.cond
  ret void
}