; Function Attrs: mustprogress uwtable
define dso_local void @_ZN36btCompoundCompoundCollisionAlgorithm22getAllContactManifoldsER20btAlignedObjectArrayIP20btPersistentManifoldE(ptr nocapture noundef nonnull readonly align 8 dereferenceable(184) %this, ptr noundef nonnull align 8 dereferenceable(25) %manifoldArray) unnamed_addr #0 align 2 {
entry:
  %m_childCollisionAlgorithmCache = getelementptr inbounds i8, ptr %this, i64 136
  %0 = load ptr, ptr %m_childCollisionAlgorithmCache, align 8
  %m_size.i = getelementptr inbounds i8, ptr %0, i64 12
  %1 = load i32, ptr %m_size.i, align 4
  %cmp9 = icmp sgt i32 %1, 0
  br i1 %cmp9, label %for.body.lr.ph, label %for.end

for.body.lr.ph:                                   ; preds = %entry
  %m_data.i = getelementptr inbounds i8, ptr %0, i64 24
  br label %for.body

for.body:                                         ; preds = %for.body.lr.ph, %for.inc
  %2 = phi i32 [ %1, %for.body.lr.ph ], [ %7, %for.inc ]
  %indvars.iv = phi i64 [ 0, %for.body.lr.ph ], [ %indvars.iv.next, %for.inc ]
  %3 = load ptr, ptr %m_data.i, align 8
  %4 = getelementptr inbounds %struct.btSimplePair, ptr %3, i64 %indvars.iv, i32 2
  %5 = load ptr, ptr %4, align 8
  %tobool.not = icmp eq ptr %5, null
  br i1 %tobool.not, label %for.inc, label %if.then

if.then:                                          ; preds = %for.body
  %vtable = load ptr, ptr %5, align 8
  %vfn = getelementptr inbounds i8, ptr %vtable, i64 32
  %6 = load ptr, ptr %vfn, align 8
  tail call void %6(ptr noundef nonnull align 8 dereferenceable(16) %5, ptr noundef nonnull align 8 dereferenceable(25) %manifoldArray)
  %.pre = load i32, ptr %m_size.i, align 4
  br label %for.inc

for.inc:                                          ; preds = %for.body, %if.then
  %7 = phi i32 [ %2, %for.body ], [ %.pre, %if.then ]
  %indvars.iv.next = add nuw nsw i64 %indvars.iv, 1
  %8 = sext i32 %7 to i64
  %cmp = icmp slt i64 %indvars.iv.next, %8
  br i1 %cmp, label %for.body, label %for.end, !llvm.loop !7

for.end:                                          ; preds = %for.inc, %entry
  ret void
}